target datalayout = "e-m:e-p270:32:32-p271:32:32-p272:64:64-i64:64-i128:128-f80:128-n8:16:32:64-S128"
target triple = "x86_64-pc-linux-gnu"

%struct.ImRect = type { %struct.ImVec2, %struct.ImVec2 }
%struct.ImVec2 = type { float, float }
%struct.ImGuiTextBuffer = type { %struct.ImVector.28 }
%struct.ImVector.28 = type { i32, i32, ptr }
%struct.ImGuiTableInstanceData = type { i32, float, float, float, i32, i32 }
%struct.ImGuiTable = type <{ i32, i32, ptr, ptr, %struct.ImSpan, %struct.ImSpan.41, %struct.ImSpan.42, ptr, ptr, ptr, i32, i32, i32, i32, i32, i32, i16, i16, float, float, float, float, float, float, i32, i32, [2 x i32], i32, i32, float, float, float, float, float, float, float, float, float, float, float, float, float, float, float, float, float, %struct.ImRect, %struct.ImRect, %struct.ImRect, %struct.ImRect, %struct.ImRect, %struct.ImRect, %struct.ImRect, %struct.ImRect, %struct.ImRect, ptr, ptr, %struct.ImGuiTextBuffer, ptr, %struct.ImGuiTableInstanceData, %struct.ImVector.43, %struct.ImGuiTableColumnSortSpecs, [4 x i8], %struct.ImVector.44, %struct.ImGuiTableSortSpecs, i16, i16, i16, i16, i16, i16, i16, i16, i16, i16, i16, i16, i16, i16, i16, i16, i16, i16, i16, i16, i16, i16, i16, i16, i16, i16, i16, i8, i8, i8, i8, i8, i8, i8, i8, i8, i8, i8, i8, i8, i8, i8, i8, i8, i8, i8, i8, [6 x i8] }>
%struct.ImSpan = type { ptr, ptr }
%struct.ImSpan.41 = type { ptr, ptr }
%struct.ImSpan.42 = type { ptr, ptr }
%struct.ImVector.43 = type { i32, i32, ptr }
%struct.ImGuiTableColumnSortSpecs = type <{ i32, i16, i16, i8, [3 x i8] }>
%struct.ImVector.44 = type { i32, i32, ptr }
%struct.ImGuiTableSortSpecs = type <{ ptr, i32, i8, [3 x i8] }>

@.str.9 = private unnamed_addr constant [14 x i8] c"##ContextMenu\00", align 1

; Function Attrs: mustprogress uwtable
define dso_local noundef zeroext i1 @_ZN5ImGui26TableBeginContextMenuPopupEP10ImGuiTable(ptr noundef %0) #0 {
  %2 = alloca i1, align 1
  %3 = alloca ptr, align 8
  %4 = alloca i32, align 4
  %5 = alloca i32, align 4
  store ptr %0, ptr %3, align 8, !tbaa !166
  %6 = load ptr, ptr %3, align 8, !tbaa !166
  %7 = getelementptr inbounds nuw %struct.ImGuiTable, ptr %6, i32 0, i32 97
  %8 = load i8, ptr %7, align 1, !tbaa !459, !range !64, !noundef !65
  %9 = trunc i8 %8 to i1
  br i1 %9, label %10, label %20

10:                                               ; preds = %1
  %11 = load ptr, ptr %3, align 8, !tbaa !166
  %12 = getelementptr inbounds nuw %struct.ImGuiTable, ptr %11, i32 0, i32 16
  %13 = load i16, ptr %12, align 8, !tbaa !194
  %14 = sext i16 %13 to i32
  %15 = load ptr, ptr %3, align 8, !tbaa !166
  %16 = getelementptr inbounds nuw %struct.ImGuiTable, ptr %15, i32 0, i32 17
  %17 = load i16, ptr %16, align 2, !tbaa !268
  %18 = sext i16 %17 to i32
  %19 = icmp ne i32 %14, %18
  br i1 %19, label %20, label %21

20:                                               ; preds = %10, %1
  store i1 false, ptr %2, align 1
  br label %33

21:                                               ; preds = %10
  call void @llvm.lifetime.start.p0(i64 4, ptr %4) #8
  %22 = load ptr, ptr %3, align 8, !tbaa !166
  %23 = getelementptr inbounds nuw %struct.ImGuiTable, ptr %22, i32 0, i32 0
  %24 = load i32, ptr %23, align 8, !tbaa !196
  %25 = call noundef i32 @_Z9ImHashStrPKcmj(ptr noundef @.str.9, i64 noundef 0, i32 noundef %24)
  store i32 %25, ptr %4, align 4, !tbaa !4
  %26 = load i32, ptr %4, align 4, !tbaa !4
  %27 = call noundef zeroext i1 @_ZN5ImGui12BeginPopupExEji(i32 noundef %26, i32 noundef 321)
  br i1 %27, label %28, label %29

28:                                               ; preds = %21
  store i1 true, ptr %2, align 1
  store i32 1, ptr %5, align 4
  br label %32

29:                                               ; preds = %21
  %30 = load ptr, ptr %3, align 8, !tbaa !166
  %31 = getelementptr inbounds nuw %struct.ImGuiTable, ptr %30, i32 0, i32 97
  store i8 0, ptr %31, align 1, !tbaa !459
  store i1 false, ptr %2, align 1
  store i32 1, ptr %5, align 4
  br label %32

32:                                               ; preds = %29, %28
  call void @llvm.lifetime.end.p0(i64 4, ptr %4) #8
  br label %33

33:                                               ; preds = %32, %20
  %34 = load i1, ptr %2, align 1
  ret i1 %34
}