; Function Attrs: mustprogress uwtable
define dso_local noundef zeroext i1 @_ZN5ImGui26TableBeginContextMenuPopupEP10ImGuiTable(ptr noundef captures(none) %0) local_unnamed_addr #0 {
  %2 = getelementptr inbounds nuw i8, ptr %0, i64 571
  %3 = load i8, ptr %2, align 1, !tbaa !422, !range !152, !noundef !153
  %4 = trunc nuw i8 %3 to i1
  br i1 %4, label %5, label %15

5:                                                ; preds = %1
  %6 = getelementptr inbounds nuw i8, ptr %0, i64 120
  %7 = load i16, ptr %6, align 8, !tbaa !202
  %8 = getelementptr inbounds nuw i8, ptr %0, i64 122
  %9 = load i16, ptr %8, align 2, !tbaa !289
  %.not = icmp eq i16 %7, %9
  br i1 %.not, label %10, label %15

10:                                               ; preds = %5
  %11 = load i32, ptr %0, align 8, !tbaa !204
  %12 = tail call noundef i32 @_Z9ImHashStrPKcmj(ptr noundef nonnull @.str.9, i64 noundef 0, i32 noundef %11)
  %13 = tail call noundef zeroext i1 @_ZN5ImGui12BeginPopupExEji(i32 noundef %12, i32 noundef 321)
  br i1 %13, label %15, label %14

14:                                               ; preds = %10
  store i8 0, ptr %2, align 1, !tbaa !422
  br label %15

15:                                               ; preds = %14, %10, %1, %5
  %.0 = phi i1 [ false, %5 ], [ false, %1 ], [ true, %10 ], [ false, %14 ]
  ret i1 %.0
}